; Function Attrs: mustprogress uwtable
define internal fastcc noundef ptr @_ZL14pj_adams_setupP8PJconstsN12_GLOBAL__N_115projection_typeE(ptr noundef %0, i32 noundef %1) unnamed_addr #0 {
  %3 = tail call noalias dereferenceable_or_null(24) ptr @calloc(i64 noundef 1, i64 noundef 24) #7
  %4 = icmp eq ptr %3, null
  br i1 %4, label %5, label %7

5:                                                ; preds = %2
  %6 = tail call noundef ptr @_Z21pj_default_destructorP8PJconstsi(ptr noundef %0, i32 noundef 4096)
  br label %79

7:                                                ; preds = %2
  %8 = getelementptr inbounds i8, ptr %0, i64 88
  store ptr %3, ptr %8, align 8
  %9 = getelementptr inbounds i8, ptr %0, i64 216
  store double 0.000000e+00, ptr %9, align 8
  %10 = getelementptr inbounds i8, ptr %0, i64 104
  store ptr @_ZL13adams_forward5PJ_LPP8PJconsts, ptr %10, align 8
  store i32 %1, ptr %3, align 8
  switch i32 %1, label %79 [
    i32 4, label %11
    i32 1, label %13
  ]

11:                                               ; preds = %7
  %12 = getelementptr inbounds i8, ptr %0, i64 112
  store ptr @_ZL13adams_inverse5PJ_XYP8PJconsts, ptr %12, align 8
  br label %79

13:                                               ; preds = %7
  %14 = load ptr, ptr %0, align 8
  %15 = getelementptr inbounds i8, ptr %0, i64 24
  %16 = load ptr, ptr %15, align 8
  %17 = tail call i64 @_Z8pj_paramP6pj_ctxP8ARG_listPKc(ptr noundef %14, ptr noundef %16, ptr noundef nonnull @.str.5)
  %.sroa.013.0..sroa.013.0..cast = inttoptr i64 %17 to ptr
  %.not = icmp eq i64 %17, 0
  %spec.store.select = select i1 %.not, ptr @.str.6, ptr %.sroa.013.0..sroa.013.0..cast
  %18 = tail call i32 @strcmp(ptr noundef nonnull dereferenceable(1) %spec.store.select, ptr noundef nonnull dereferenceable(7) @.str.7) #8
  %19 = icmp eq i32 %18, 0
  br i1 %19, label %20, label %23

20:                                               ; preds = %13
  %21 = getelementptr inbounds i8, ptr %3, i64 4
  store i32 0, ptr %21, align 4
  %22 = getelementptr inbounds i8, ptr %0, i64 112
  store ptr @_ZL23peirce_q_square_inverse5PJ_XYP8PJconsts, ptr %22, align 8
  br label %79

23:                                               ; preds = %13
  %24 = tail call i32 @strcmp(ptr noundef nonnull dereferenceable(1) %spec.store.select, ptr noundef nonnull dereferenceable(8) @.str.6) #8
  %25 = icmp eq i32 %24, 0
  br i1 %25, label %26, label %29

26:                                               ; preds = %23
  %27 = getelementptr inbounds i8, ptr %3, i64 4
  store i32 1, ptr %27, align 4
  %28 = getelementptr inbounds i8, ptr %0, i64 112
  store ptr @_ZL24peirce_q_diamond_inverse5PJ_XYP8PJconsts, ptr %28, align 8
  br label %79

29:                                               ; preds = %23
  %30 = tail call i32 @strcmp(ptr noundef nonnull dereferenceable(1) %spec.store.select, ptr noundef nonnull dereferenceable(12) @.str.8) #8
  %31 = icmp eq i32 %30, 0
  br i1 %31, label %32, label %34

32:                                               ; preds = %29
  %33 = getelementptr inbounds i8, ptr %3, i64 4
  store i32 2, ptr %33, align 4
  br label %79

34:                                               ; preds = %29
  %35 = tail call i32 @strcmp(ptr noundef nonnull dereferenceable(1) %spec.store.select, ptr noundef nonnull dereferenceable(12) @.str.9) #8
  %36 = icmp eq i32 %35, 0
  br i1 %36, label %37, label %39

37:                                               ; preds = %34
  %38 = getelementptr inbounds i8, ptr %3, i64 4
  store i32 3, ptr %38, align 4
  br label %79

39:                                               ; preds = %34
  %40 = tail call i32 @strcmp(ptr noundef nonnull dereferenceable(1) %spec.store.select, ptr noundef nonnull dereferenceable(11) @.str.10) #8
  %41 = icmp eq i32 %40, 0
  br i1 %41, label %42, label %58

42:                                               ; preds = %39
  %43 = getelementptr inbounds i8, ptr %3, i64 4
  store i32 4, ptr %43, align 4
  %44 = load ptr, ptr %0, align 8
  %45 = load ptr, ptr %15, align 8
  %46 = tail call i64 @_Z8pj_paramP6pj_ctxP8ARG_listPKc(ptr noundef %44, ptr noundef %45, ptr noundef nonnull @.str.11)
  %47 = and i64 %46, 4294967295
  %.not63 = icmp eq i64 %47, 0
  br i1 %.not63, label %79, label %48

48:                                               ; preds = %42
  %49 = load ptr, ptr %0, align 8
  %50 = load ptr, ptr %15, align 8
  %51 = tail call i64 @_Z8pj_paramP6pj_ctxP8ARG_listPKc(ptr noundef %49, ptr noundef %50, ptr noundef nonnull @.str.12)
  %52 = bitcast i64 %51 to double
  %53 = tail call double @llvm.fabs.f64(double %52)
  %or.cond = fcmp ogt double %53, 1.000000e+00
  br i1 %or.cond, label %54, label %56

54:                                               ; preds = %48
  tail call void (ptr, ptr, ...) @_Z14proj_log_errorPK8PJconstsPKcz(ptr noundef nonnull %0, ptr noundef nonnull @.str.13)
  %55 = tail call noundef ptr @_Z21pj_default_destructorP8PJconstsi(ptr noundef nonnull %0, i32 noundef 1027)
  br label %79

56:                                               ; preds = %48
  %57 = getelementptr inbounds i8, ptr %3, i64 8
  store i64 %51, ptr %57, align 8
  br label %79

58:                                               ; preds = %39
  %59 = tail call i32 @strcmp(ptr noundef nonnull dereferenceable(1) %spec.store.select, ptr noundef nonnull dereferenceable(9) @.str.14) #8
  %60 = icmp eq i32 %59, 0
  br i1 %60, label %61, label %77

61:                                               ; preds = %58
  %62 = getelementptr inbounds i8, ptr %3, i64 4
  store i32 5, ptr %62, align 4
  %63 = load ptr, ptr %0, align 8
  %64 = load ptr, ptr %15, align 8
  %65 = tail call i64 @_Z8pj_paramP6pj_ctxP8ARG_listPKc(ptr noundef %63, ptr noundef %64, ptr noundef nonnull @.str.15)
  %66 = and i64 %65, 4294967295
  %.not62 = icmp eq i64 %66, 0
  br i1 %.not62, label %79, label %67

67:                                               ; preds = %61
  %68 = load ptr, ptr %0, align 8
  %69 = load ptr, ptr %15, align 8
  %70 = tail call i64 @_Z8pj_paramP6pj_ctxP8ARG_listPKc(ptr noundef %68, ptr noundef %69, ptr noundef nonnull @.str.16)
  %71 = bitcast i64 %70 to double
  %72 = tail call double @llvm.fabs.f64(double %71)
  %or.cond3 = fcmp ogt double %72, 1.000000e+00
  br i1 %or.cond3, label %73, label %75

73:                                               ; preds = %67
  tail call void (ptr, ptr, ...) @_Z14proj_log_errorPK8PJconstsPKcz(ptr noundef nonnull %0, ptr noundef nonnull @.str.17)
  %74 = tail call noundef ptr @_Z21pj_default_destructorP8PJconstsi(ptr noundef nonnull %0, i32 noundef 1027)
  br label %79

75:                                               ; preds = %67
  %76 = getelementptr inbounds i8, ptr %3, i64 16
  store i64 %70, ptr %76, align 8
  br label %79

77:                                               ; preds = %58
  tail call void (ptr, ptr, ...) @_Z14proj_log_errorPK8PJconstsPKcz(ptr noundef nonnull %0, ptr noundef nonnull @.str.18)
  %78 = tail call noundef ptr @_Z21pj_default_destructorP8PJconstsi(ptr noundef nonnull %0, i32 noundef 1027)
  br label %79

79:                                               ; preds = %11, %26, %37, %75, %61, %42, %56, %32, %20, %7, %77, %73, %54, %5
  %.0 = phi ptr [ %6, %5 ], [ %55, %54 ], [ %74, %73 ], [ %78, %77 ], [ %0, %7 ], [ %0, %20 ], [ %0, %32 ], [ %0, %56 ], [ %0, %42 ], [ %0, %61 ], [ %0, %75 ], [ %0, %37 ], [ %0, %26 ], [ %0, %11 ]
  ret ptr %.0
}